                                *** AILZ80ASM *** Z-80 Assembler, version 0.9.9.1
                                    ; 00
                                LB00:
000000 0000 00               4      NOP
000001 0001 011122          10      LD BC,$2211
000004 0004 02               7      LD (BC),A
000005 0005 03               6      INC BC
000006 0006 04               4      INC B
000007 0007 05               4      DEC B
000008 0008 06F0             7      LD B,$F0
00000A 000A 07               4      RLCA
00000B 000B 08               4      EX AF,AF'
00000C 000C 09              11      ADD HL, BC
00000D 000D 0A               7      LD A,(BC)
00000E 000E 0B               6      DEC BC
00000F 000F 0C               4      INC C
000010 0010 0D               4      DEC C
000011 0011 0EA0             7      LD C,$A0
000013 0013 0F               4      RRCA
                                    ; 10
                                LB10:
000014 0014 10FD            13      DJNZ $ -1
000016 0016 118855          10      LD DE,$5588
000019 0019 12               7      LD (DE),A
00001A 001A 13               6      INC DE
00001B 001B 14               4      INC D
00001C 001C 15               4      DEC D
00001D 001D 1655             7      LD D,$55
00001F 001F 17               4      RLA
000020 0020 1801            12      JR $+3
000022 0022 19              11      ADD HL,DE
000023 0023 1A               7      LD A,(DE)
000024 0024 1B               6      DEC DE
000025 0025 1C               4      INC E
000026 0026 1D               4      DEC E
000027 0027 1E33             7      LD E,$33
000029 0029 1F               4      RRA
                                    ; 20
                                LB20:
00002A 002A 20FE            12      JR NZ,LB20
00002C 002C 213412          10      LD HL,$1234
00002F 002F 227856          16      LD ($5678),HL
000032 0032 23               6      INC HL
000033 0033 24               4      INC H
000034 0034 25               4      DEC H
000035 0035 2686             7      LD H,$86
000037 0037 27               4      DAA
000038 0038 28F0            12      JR Z,LB20
00003A 003A 29              11      ADD HL,HL
00003B 003B 2ABC9A          16      LD HL,($9ABC)
00003E 003E 2B               6      DEC HL
00003F 003F 2C               4      INC L
000040 0040 2D               4      DEC L
000041 0041 2EF0             7      LD L,$DEF0
000043 0043 2F               4      CPL
                                    ; 30
                                LB30:
000044 0044 3018            12      JR NC,LB40
000046 0046 312211          10      LD SP,$1122
000049 0049 324433          13      LD ($3344),A
00004C 004C 33               6      INC SP
00004D 004D 34              11      INC (HL)
00004E 004E 35              11      DEC (HL)
00004F 004F 3666            10      LD (HL),$5566
000051 0051 37               4      SCF
000052 0052 38F0            12      JR C,LB30
000054 0054 39              11      ADD HL,SP
000055 0055 3A8877          13      LD A,($7788)
000058 0058 3B               6      DEC SP
000059 0059 3C               4      INC A
00005A 005A 3D               4      DEC A
00005B 005B 3E99             7      LD A,$99
00005D 005D 3F               4      CCF
                                    ; 40
                                LB40:
00005E 005E 40               4      LD B,B
00005F 005F 41               4      LD B,C
000060 0060 42               4      LD B,D
000061 0061 43               4      LD B,E
000062 0062 44               4      LD B,H
000063 0063 45               4      LD B,L
000064 0064 46               7      LD B,(HL)
000065 0065 47               4      LD B,A
000066 0066 48               4      LD C,B
000067 0067 49               4      LD C,C
000068 0068 4A               4      LD C,D
000069 0069 4B               4      LD C,E
00006A 006A 4C               4      LD C,H
00006B 006B 4D               4      LD C,L
00006C 006C 4E               7      LD C,(HL)
00006D 006D 4F               4      LD C,A
                                    ; 50
                                LB50:
00006E 006E 50               4      LD D,B
00006F 006F 51               4      LD D,C
000070 0070 52               4      LD D,D
000071 0071 53               4      LD D,E
000072 0072 54               4      LD D,H
000073 0073 55               4      LD D,L
000074 0074 56               7      LD D,(HL)
000075 0075 57               4      LD D,A
000076 0076 58               4      LD E,B
000077 0077 59               4      LD E,C
000078 0078 5A               4      LD E,D
000079 0079 5B               4      LD E,E
00007A 007A 5C               4      LD E,H
00007B 007B 5D               4      LD E,L
00007C 007C 5E               7      LD E,(HL)
00007D 007D 5F               4      LD E,A
                                    ; 60
                                LB60:
00007E 007E 60               4      LD H,B
00007F 007F 61               4      LD H,C
000080 0080 62               4      LD H,D
000081 0081 63               4      LD H,E
000082 0082 64               4      LD H,H
000083 0083 65               4      LD H,L
000084 0084 66               7      LD H,(HL)
000085 0085 67               4      LD H,A
000086 0086 68               4      LD L,B
000087 0087 69               4      LD L,C
000088 0088 6A               4      LD L,D
000089 0089 6B               4      LD L,E
00008A 008A 6C               4      LD L,H
00008B 008B 6D               4      LD L,L
00008C 008C 6E               7      LD L,(HL)
00008D 008D 6F               4      LD L,A
                                    ; 70
                                LB70:
00008E 008E 70               7      LD (HL),B
00008F 008F 71               7      LD (HL),C
000090 0090 72               7      LD (HL),D
000091 0091 73               7      LD (HL),E
000092 0092 74               7      LD (HL),H
000093 0093 75               7      LD (HL),L
000094 0094 76               4      HALT
000095 0095 77               7      LD (HL),A
000096 0096 78               4      LD A,B
000097 0097 79               4      LD A,C
000098 0098 7A               4      LD A,D
000099 0099 7B               4      LD A,E
00009A 009A 7C               4      LD A,H
00009B 009B 7D               4      LD A,L
00009C 009C 7E               7      LD A,(HL)
00009D 009D 7F               4      LD A,A
                                    ; 80
                                LB80:
00009E 009E 80               4      ADD A,B
00009F 009F 81               4      ADD A,C
0000A0 00A0 82               4      ADD A,D
0000A1 00A1 83               4      ADD A,E
0000A2 00A2 84               4      ADD A,H
0000A3 00A3 85               4      ADD A,L
0000A4 00A4 86               7      ADD A,(HL)
0000A5 00A5 87               4      ADD A,A
0000A6 00A6 88               4      ADC A,B
0000A7 00A7 89               4      ADC A,C
0000A8 00A8 8A               4      ADC A,D
0000A9 00A9 8B               4      ADC A,E
0000AA 00AA 8C               4      ADC A,H
0000AB 00AB 8D               4      ADC A,L
0000AC 00AC 8E               7      ADC A,(HL)
0000AD 00AD 8F               4      ADC A,A
                                    ; 90
                                LB90:
0000AE 00AE 90               4      SUB B
0000AF 00AF 91               4      SUB C
0000B0 00B0 92               4      SUB D
0000B1 00B1 93               4      SUB E
0000B2 00B2 94               4      SUB H
0000B3 00B3 95               4      SUB L
0000B4 00B4 96               7      SUB (HL)
0000B5 00B5 97               4      SUB A
0000B6 00B6 98               4      SBC A,B
0000B7 00B7 99               4      SBC A,C
0000B8 00B8 9A               4      SBC A,D
0000B9 00B9 9B               4      SBC A,E
0000BA 00BA 9C               4      SBC A,H
0000BB 00BB 9D               4      SBC A,L
0000BC 00BC 9E               7      SBC A,(HL)
0000BD 00BD 9F               4      SBC A,A
                                    ; A0
                                LBA0:
0000BE 00BE A0               4      AND B
0000BF 00BF A1               4      AND C
0000C0 00C0 A2               4      AND D
0000C1 00C1 A3               4      AND E
0000C2 00C2 A4               4      AND H
0000C3 00C3 A5               4      AND L
0000C4 00C4 A6               7      AND (HL)
0000C5 00C5 A7               4      AND A
0000C6 00C6 A8               4      XOR B
0000C7 00C7 A9               4      XOR C
0000C8 00C8 AA               4      XOR D
0000C9 00C9 AB               4      XOR E
0000CA 00CA AC               4      XOR H
0000CB 00CB AD               4      XOR L
0000CC 00CC AE               7      XOR (HL)
0000CD 00CD AF               4      XOR A
                                    ; B0
                                LBB0:
0000CE 00CE B0               4      OR B
0000CF 00CF B1               4      OR C
0000D0 00D0 B2               4      OR D
0000D1 00D1 B3               4      OR E
0000D2 00D2 B4               4      OR H
0000D3 00D3 B5               4      OR L
0000D4 00D4 B6               7      OR (HL)
0000D5 00D5 B7               4      OR A
0000D6 00D6 B8               4      CP B
0000D7 00D7 B9               4      CP C
0000D8 00D8 BA               4      CP D
0000D9 00D9 BB               4      CP E
0000DA 00DA BC               4      CP H
0000DB 00DB BD               4      CP L
0000DC 00DC BE               7      CP (HL)
0000DD 00DD BF               4      CP A
                                    ; C0
                                LBC0:
0000DE 00DE C0              11      RET NZ
0000DF 00DF C1              10      POP BC
0000E0 00E0 C23412          10      JP NZ,$1234
0000E3 00E3 C37856          10      JP $5678
0000E6 00E6 C4CDAB          17      CALL NZ,$ABCD
0000E9 00E9 C5              11      PUSH BC
0000EA 00EA C601             7      ADD A,$1
0000EC 00EC C7              12      RST 00H
0000ED 00ED C8              11      RET Z
0000EE 00EE C9              10      RET
0000EF 00EF CA5634          10      JP Z,$3456
                                    ;CB系
0000F2 00F2 CC1400          17      CALL Z,LB10
0000F5 00F5 CD2A00          17      CALL LB20
0000F8 00F8 CE31             7      ADC A,$31
0000FA 00FA CF              12      RST 08H
                                    ; D0
                                LBD0:
0000FB 00FB D0              11      RET NC
0000FC 00FC D1              10      POP DE
0000FD 00FD D2FB00          10      JP NC,LBD0
000100 0100 D312            11      OUT ($12),A
000102 0102 D41400          17      CALL NC,LB10
000105 0105 D5              11      PUSH DE
000106 0106 D603             7      SUB $3
000108 0108 D7              12      RST 10H
000109 0109 D8              11      RET C
00010A 010A D9               4      EXX
00010B 010B DA0000          10      JP C,LB00
00010E 010E DB12            11      IN A,($12)
000110 0110 DC5E00          17      CALL C,LB40
                                    ;DD系
000113 0113 DE08             7      SBC A,$8
000115 0115 DF              12      RST 18H
                                    ; E0
                                LBE0:
000116 0116 E0              11      RET PO
000117 0117 E1              10      POP HL
000118 0118 E2CE00          10      JP PO,LBB0
00011B 011B E3              19      EX (SP),HL
00011C 011C E4DE00          17      CALL PO,LBC0
00011F 011F E5              11      PUSH HL
000120 0120 E60C             7      AND 12
000122 0122 E7              12      RST 20H
000123 0123 E8              11      RET PE
000124 0124 E9               4      JP (HL)
000125 0125 EA0701          10      JP PE,$-30
000128 0128 EB               4      EX DE,HL
000129 0129 EC4701          17      CALL PE,$+30
                                    ;ED系
00012C 012C EEFF             7      XOR $FF
00012E 012E EF              12      RST 28H
                                    ; F0
                                LBF0:
00012F 012F F0              11      RET P
000130 0130 F1              10      POP AF
000131 0131 F23412          10      JP P,$1234
000134 0134 F3               4      DI
000135 0135 F47856          17      CALL P,$5678
000138 0138 F5              11      PUSH AF
000139 0139 F601             7      OR $1
00013B 013B F7              12      RST 30H
00013C 013C F8              11      RET M
00013D 013D F9               6      LD SP,HL
00013E 013E FACDAB          10      JP M,$ABCD
000141 0141 FB               4      EI
000142 0142 FCA0EF          17      CALL M,$EFA0
                                    ;FD系
000145 0145 FE98             7      CP $98
000147 0147 FF              12      RST 38H
                                    
                                    ; IX系 DD
000148 0148 DD09            15      ADD IX,BC
00014A 014A DD19            15      ADD IX,DE
00014C 014C DD213412        14      LD IX,$1234
000150 0150 DD227856        20      LD ($5678),IX
000154 0154 DD23            10      INC IX
000156 0156 DD24            10      INC IXh
000158 0158 DD25            10      DEC IXh
00015A 015A DD2601          10      LD IXh,1
                                    ;ADD IX,HL こんなものはない
00015D 015D DD2A3412        20      LD IX,($1234)
000161 0161 DD2B            10      DEC IX
000163 0163 DD2C            10      INC IXl
000165 0165 DD2D            10      DEC IXl
000167 0167 DD2E02          10      LD IXl,2
00016A 016A DD3403          23      INC (IX+3)
00016D 016D DD3504          23      DEC (IX+4)
000170 0170 DD360555        19      LD (IX+5),$55
000174 0174 DD39            15      ADD IX,SP
000176 0176 DD44             9      LD B,IXh
000178 0178 DD45             9      LD B,IXl
00017A 017A DD4606          19      LD B,(IX+6)
00017D 017D DD4C             9      LD C,IXh
00017F 017F DD4D             9      LD C,IXl
000181 0181 DD4E07          19      LD C,(IX+7)
000184 0184 DD54             9      LD D,IXh
000186 0186 DD55             9      LD D,IXl
000188 0188 DD5608          19      LD D,(IX+8)
00018B 018B DD5C             9      LD E,IXh
00018D 018D DD5D             9      LD E,IXl
00018F 018F DD5E09          19      LD E,(IX+9)
000192 0192 DD60             9      LD IXh,B
000194 0194 DD61             9      LD IXh,C
000196 0196 DD62             9      LD IXh,D
000198 0198 DD63             9      LD IXh,E
                                    ;LD IXh,H これがない
                                    ;LD IXh,L これがない
00019A 019A DD660A          19      LD H,(IX+10)
00019D 019D DD67             9      LD IXh,A
00019F 019F DD68             9      LD IXl,B
0001A1 01A1 DD69             9      LD IXl,C
0001A3 01A3 DD6A             9      LD IXl,D
0001A5 01A5 DD6B             9      LD IXl,E
                                    ;LD IXl,H これがない
                                    ;LD IXl,L これがない
0001A7 01A7 DD6E0B          19      LD L,(IX+11)
0001AA 01AA DD6F             9      LD IXl,A
0001AC 01AC DD700C          19      LD (IX+12),B
0001AF 01AF DD710D          19      LD (IX+13),C
0001B2 01B2 DD720E          19      LD (IX+14),D
0001B5 01B5 DD730F          19      LD (IX+15),E
0001B8 01B8 DD7410          19      LD (IX+16),H
0001BB 01BB DD7511          19      LD (IX+17),L
0001BE 01BE DD7712          19      LD (IX+18),A
0001C1 01C1 DD7C             9      LD A,IXh
0001C3 01C3 DD7D             9      LD A,IXl
0001C5 01C5 DD7E13          19      LD A,(IX+19)
0001C8 01C8 DD84            10      ADD A,IXh
0001CA 01CA DD85            10      ADD A,IXl
0001CC 01CC DD8614          19      ADD A,(IX+20)
0001CF 01CF DD8C            10      ADC A,IXh
0001D1 01D1 DD8D            10      ADC A,IXl
0001D3 01D3 DD8E15          19      ADC A,(IX+21)
0001D6 01D6 DD94            10      SUB IXh
0001D8 01D8 DD95            10      SUB IXl
0001DA 01DA DD9616          19      SUB (IX+22)
0001DD 01DD DD9C            10      SBC A,IXh
0001DF 01DF DD9D            10      SBC A,IXl
0001E1 01E1 DD9E17          19      SBC A,(IX+23)
0001E4 01E4 DDA4            10      AND IXh
0001E6 01E6 DDA5            10      AND IXl
0001E8 01E8 DDA618          19      AND (IX+24)
0001EB 01EB DDAC            10      XOR IXh
0001ED 01ED DDAD            10      XOR IXl
0001EF 01EF DDAE19          19      XOR (IX+25)
0001F2 01F2 DDB4            10      OR IXh
0001F4 01F4 DDB5            10      OR IXl
0001F6 01F6 DDB61A          19      OR (IX+26)
0001F9 01F9 DDBC            10      CP IXh
0001FB 01FB DDBD            10      CP IXl
0001FD 01FD DDBE1B           7      CP (IX+27)
                                    ;DD CB系
000200 0200 DDE1            14      POP IX
000202 0202 DDE3            23      EX (SP),IX
000204 0204 DDE5            15      PUSH IX
000206 0206 DDE9             8      JP (IX)                     
000208 0208 DDF9            10      LD SP,IX
                                    
                                    ; IY系 FD
00020A 020A FD09            15      ADD IY,BC
00020C 020C FD19            15      ADD IY,DE
00020E 020E FD213412        14      LD IY,$1234
000212 0212 FD227856        20      LD ($5678),IY
000216 0216 FD23            10      INC IY
000218 0218 FD24            10      INC IYh
00021A 021A FD25            10      DEC IYh
00021C 021C FD2601          10      LD IYh,1
                                    ;ADD IY,HL こんなものはない
00021F 021F FD2A3412        20      LD IY,($1234)
000223 0223 FD2B            10      DEC IY
000225 0225 FD2C            10      INC IYl
000227 0227 FD2D            10      DEC IYl
000229 0229 FD2E02          10      LD IYl,2
00022C 022C FD3403          23      INC (IY+3)
00022F 022F FD3504          23      DEC (IY+4)
000232 0232 FD360555        19      LD (IY+5),$55
000236 0236 FD39            15      ADD IY,SP
000238 0238 FD44             9      LD B,IYh
00023A 023A FD45             9      LD B,IYl
00023C 023C FD4606          19      LD B,(IY+6)
00023F 023F FD4C             9      LD C,IYh
000241 0241 FD4D             9      LD C,IYl
000243 0243 FD4E07          19      LD C,(IY+7)
000246 0246 FD54             9      LD D,IYh
000248 0248 FD55             9      LD D,IYl
00024A 024A FD5608          19      LD D,(IY+8)
00024D 024D FD5C             9      LD E,IYh
00024F 024F FD5D             9      LD E,IYl
000251 0251 FD5E09          19      LD E,(IY+9)
000254 0254 FD60             9      LD IYh,B
000256 0256 FD61             9      LD IYh,C
000258 0258 FD62             9      LD IYh,D
00025A 025A FD63             9      LD IYh,E
                                    ;LD IYh,H これがない
                                    ;LD IYh,L これがない
00025C 025C FD660A          19      LD H,(IY+10)
00025F 025F FD67             9      LD IYh,A
000261 0261 FD68             9      LD IYl,B
000263 0263 FD69             9      LD IYl,C
000265 0265 FD6A             9      LD IYl,D
000267 0267 FD6B             9      LD IYl,E
                                    ;LD IYl,H これもない
                                    ;LD IYl,L これもない
000269 0269 FD6E0B          19      LD L,(IY+11)
00026C 026C FD6F             9      LD IYl,A
00026E 026E FD700C          19      LD (IY+12),B
000271 0271 FD710D          19      LD (IY+13),C
000274 0274 FD720E          19      LD (IY+14),D
000277 0277 FD730F          19      LD (IY+15),E
00027A 027A FD7410          19      LD (IY+16),H
00027D 027D FD7511          19      LD (IY+17),L
000280 0280 FD7712          19      LD (IY+18),A
000283 0283 FD7C             9      LD A,IYh
000285 0285 FD7D             9      LD A,IYl
000287 0287 FD7E13          19      LD A,(IY+19)
00028A 028A FD84            10      ADD A,IYh
00028C 028C FD85            10      ADD A,IYl
00028E 028E FD8614          19      ADD A,(IY+20)
000291 0291 FD8C            10      ADC A,IYh
000293 0293 FD8D            10      ADC A,IYl
000295 0295 FD8E15          19      ADC A,(IY+21)
000298 0298 FD94            10      SUB IYh
00029A 029A FD95            10      SUB IYl
00029C 029C FD9616          19      SUB (IY+22)
00029F 029F FD9C            10      SBC A,IYh
0002A1 02A1 FD9D            10      SBC A,IYl
0002A3 02A3 FD9E17          19      SBC A,(IY+23)
0002A6 02A6 FDA4            10      AND IYh
0002A8 02A8 FDA5            10      AND IYl
0002AA 02AA FDA618          19      AND (IY+24)
0002AD 02AD FDAC            10      XOR IYh
0002AF 02AF FDAD            10      XOR IYl
0002B1 02B1 FDAE19          19      XOR (IY+25)
0002B4 02B4 FDB4            10      OR IYh
0002B6 02B6 FDB5            10      OR IYl
0002B8 02B8 FDB61A          19      OR (IY+26)
0002BB 02BB FDBC            10      CP IYh
0002BD 02BD FDBD            10      CP IYl
0002BF 02BF FDBE1B           7      CP (IY+27)
                                    ;FD CB系
0002C2 02C2 FDE1            14      POP IY
0002C4 02C4 FDE3            23      EX (SP),IY
0002C6 02C6 FDE5            15      PUSH IY
0002C8 02C8 FDE9             8      JP (IY)                     
0002CA 02CA FDF9            10      LD SP,IY    
                                
                                    ;その他 ED
0002CC 02CC ED40            12      IN B,(C)
0002CE 02CE ED41            12      OUT (C),B
0002D0 02D0 ED42            15      SBC HL,BC
0002D2 02D2 ED433512        20      LD ($1234+1),BC
0002D6 02D6 ED44             8      NEG
0002D8 02D8 ED45            14      RETN
0002DA 02DA ED46             8      IM 0
0002DC 02DC ED47             9      LD I,A
0002DE 02DE ED48            12      IN C,(C)
0002E0 02E0 ED49            12      OUT (C),C
0002E2 02E2 ED4A            15      ADC HL,BC
0002E4 02E4 ED4B7956        20      LD BC,($5678+1)
0002E8 02E8 ED4D            15      RETI
0002EA 02EA ED4F             9      LD R,A
0002EC 02EC ED50            12      IN D,(C)
0002EE 02EE ED51            12      OUT (C),D
0002F0 02F0 ED52            15      SBC HL,DE
0002F2 02F2 ED53CCAB        20      LD ($ABCD-1),DE
0002F6 02F6 ED56             8      IM 1
0002F8 02F8 ED57             9      LD A,I
0002FA 02FA ED58            12      IN E,(C)
0002FC 02FC ED59            12      OUT (C),E
0002FE 02FE ED5A            15      ADC HL,DE
000300 0300 ED5B5714        20      LD DE,($1458-1)
000304 0304 ED5E             8      IM 2
000306 0306 ED5F             9      LD A,R
000308 0308 ED60            12      IN H,(C)
00030A 030A ED61            12      OUT (C),H
00030C 030C ED62            15      SBC HL,HL
00030E 030E 22BBAA          16      LD ($AABB),HL
000311 0311 ED67            18      RRD
000313 0313 ED68            12      IN L,(C)
000315 0315 ED69            12      OUT (C),L
000317 0317 ED6A            15      ADC HL,HL
000319 0319 2ADDCC          16      LD HL,($CCDD)
00031C 031C ED6F            18      RLD
00031E 031E ED70            12      IN F,(C)
000320 0320 ED71            12      OUT (C),0
000322 0322 ED72            15      SBC HL,SP
000324 0324 ED73E000        20      LD ($100-$20),SP
000328 0328 ED78            12      IN A,(C)
00032A 032A ED79            12      OUT (C),A
00032C 032C ED7A            15      ADC HL,SP
00032E 032E ED7BD000        20      LD SP,($100-$30)
000332 0332 EDA0            16      LDI
000334 0334 EDA1            16      CPI
000336 0336 EDA2            16      INI
000338 0338 EDA3            16      OUTI
00033A 033A EDA8            16      LDD
00033C 033C EDA9            16      CPD
00033E 033E EDAA            16      IND
000340 0340 EDAB            16      OUTD
000342 0342 EDB0                    LDIR
000344 0344 EDB1                    CPIR
000346 0346 EDB2                    INIR
000348 0348 EDB3                    OTIR
00034A 034A EDB8                    LDDR
00034C 034C EDB9                    CPDR
00034E 034E EDBA                    INDR
000350 0350 EDBB                    OTDR
                                
                                    ; ビット操作系(CB)
000352 0352 CB00             4      RLC B
000354 0354 CB01             4      RLC C
000356 0356 CB02             4      RLC D
000358 0358 CB03             4      RLC E
00035A 035A CB04             4      RLC H
00035C 035C CB05             4      RLC L
00035E 035E CB06            15      RLC (HL)
000360 0360 CB07             4      RLC A
000362 0362 CB08             4      RRC B
000364 0364 CB09             4      RRC C
000366 0366 CB0A             4      RRC D
000368 0368 CB0B             4      RRC E
00036A 036A CB0C             4      RRC H
00036C 036C CB0D             4      RRC L
00036E 036E CB0E            15      RRC (HL)
000370 0370 CB0F             4      RRC A
000372 0372 CB10             8      RL B
000374 0374 CB11             8      RL C
000376 0376 CB12             8      RL D
000378 0378 CB13             8      RL E
00037A 037A CB14             8      RL H
00037C 037C CB15             8      RL L
00037E 037E CB16            15      RL (HL)
000380 0380 CB17             8      RL A
000382 0382 CB18             8      RR B
000384 0384 CB19             8      RR C
000386 0386 CB1A             8      RR D
000388 0388 CB1B             8      RR E
00038A 038A CB1C             8      RR H
00038C 038C CB1D             8      RR L
00038E 038E CB1E            15      RR (HL)
000390 0390 CB1F             8      RR A
000392 0392 CB20             8      SLA B
000394 0394 CB21             8      SLA C
000396 0396 CB22             8      SLA D
000398 0398 CB23             8      SLA E
00039A 039A CB24             8      SLA H
00039C 039C CB25             8      SLA L
00039E 039E CB26            15      SLA (HL)
0003A0 03A0 CB27             8      SLA A
0003A2 03A2 CB28             8      SRA B
0003A4 03A4 CB29             8      SRA C
0003A6 03A6 CB2A             8      SRA D
0003A8 03A8 CB2B             8      SRA E
0003AA 03AA CB2C             8      SRA H
0003AC 03AC CB2D             8      SRA L
0003AE 03AE CB2E            15      SRA (HL)
0003B0 03B0 CB2F             8      SRA A
0003B2 03B2 CB30             8      SLL B
0003B4 03B4 CB31             8      SLL C
0003B6 03B6 CB32             8      SLL D
0003B8 03B8 CB33             8      SLL E
0003BA 03BA CB34             8      SLL H
0003BC 03BC CB35             8      SLL L
0003BE 03BE CB36            15      SLL (HL)
0003C0 03C0 CB37             8      SLL A
0003C2 03C2 CB38             8      SRL B
0003C4 03C4 CB39             8      SRL C
0003C6 03C6 CB3A             8      SRL D
0003C8 03C8 CB3B             8      SRL E
0003CA 03CA CB3C             8      SRL H
0003CC 03CC CB3D             8      SRL L
0003CE 03CE CB3E            15      SRL (HL)
0003D0 03D0 CB3F             8      SRL A
0003D2 03D2 CB40             8      BIT 0,B
0003D4 03D4 CB41             8      BIT 0,C
0003D6 03D6 CB42             8      BIT 0,D
0003D8 03D8 CB43             8      BIT 0,E
0003DA 03DA CB44             8      BIT 0,H
0003DC 03DC CB45             8      BIT 0,L
0003DE 03DE CB46            13      BIT 0,(HL)
0003E0 03E0 CB47             8      BIT 0,A
0003E2 03E2 CB48             8      BIT 1,B
0003E4 03E4 CB49             8      BIT 1,C
0003E6 03E6 CB4A             8      BIT 1,D
0003E8 03E8 CB4B             8      BIT 1,E
0003EA 03EA CB4C             8      BIT 1,H
0003EC 03EC CB4D             8      BIT 1,L
0003EE 03EE CB4E            13      BIT 1,(HL)
0003F0 03F0 CB4F             8      BIT 1,A
0003F2 03F2 CB50             8      BIT 2,B
0003F4 03F4 CB51             8      BIT 2,C
0003F6 03F6 CB52             8      BIT 2,D
0003F8 03F8 CB53             8      BIT 2,E
0003FA 03FA CB54             8      BIT 2,H
0003FC 03FC CB55             8      BIT 2,L
0003FE 03FE CB56            13      BIT 2,(HL)
000400 0400 CB57             8      BIT 2,A
000402 0402 CB58             8      BIT 3,B
000404 0404 CB59             8      BIT 3,C
000406 0406 CB5A             8      BIT 3,D
000408 0408 CB5B             8      BIT 3,E
00040A 040A CB5C             8      BIT 3,H
00040C 040C CB5D             8      BIT 3,L
00040E 040E CB5E            13      BIT 3,(HL)
000410 0410 CB5F             8      BIT 3,A
000412 0412 CB60             8      BIT 4,B
000414 0414 CB61             8      BIT 4,C
000416 0416 CB62             8      BIT 4,D
000418 0418 CB63             8      BIT 4,E
00041A 041A CB64             8      BIT 4,H
00041C 041C CB65             8      BIT 4,L
00041E 041E CB66            13      BIT 4,(HL)
000420 0420 CB67             8      BIT 4,A
000422 0422 CB68             8      BIT 5,B
000424 0424 CB69             8      BIT 5,C
000426 0426 CB6A             8      BIT 5,D
000428 0428 CB6B             8      BIT 5,E
00042A 042A CB6C             8      BIT 5,H
00042C 042C CB6D             8      BIT 5,L
00042E 042E CB6E            13      BIT 5,(HL)
000430 0430 CB6F             8      BIT 5,A
000432 0432 CB70             8      BIT 6,B
000434 0434 CB71             8      BIT 6,C
000436 0436 CB72             8      BIT 6,D
000438 0438 CB73             8      BIT 6,E
00043A 043A CB74             8      BIT 6,H
00043C 043C CB75             8      BIT 6,L
00043E 043E CB76            13      BIT 6,(HL)
000440 0440 CB77             8      BIT 6,A
000442 0442 CB78             8      BIT 7,B
000444 0444 CB79             8      BIT 7,C
000446 0446 CB7A             8      BIT 7,D
000448 0448 CB7B             8      BIT 7,E
00044A 044A CB7C             8      BIT 7,H
00044C 044C CB7D             8      BIT 7,L
00044E 044E CB7E            13      BIT 7,(HL)
000450 0450 CB7F             8      BIT 7,A
000452 0452 CB80             8      RES 0,B
000454 0454 CB81             8      RES 0,C
000456 0456 CB82             8      RES 0,D
000458 0458 CB83             8      RES 0,E
00045A 045A CB84             8      RES 0,H
00045C 045C CB85             8      RES 0,L
00045E 045E CB86            15      RES 0,(HL)
000460 0460 CB87             8      RES 0,A
000462 0462 CB88             8      RES 1,B
000464 0464 CB89             8      RES 1,C
000466 0466 CB8A             8      RES 1,D
000468 0468 CB8B             8      RES 1,E
00046A 046A CB8C             8      RES 1,H
00046C 046C CB8D             8      RES 1,L
00046E 046E CB8E            15      RES 1,(HL)
000470 0470 CB8F             8      RES 1,A
000472 0472 CB90             8      RES 2,B
000474 0474 CB91             8      RES 2,C
000476 0476 CB92             8      RES 2,D
000478 0478 CB93             8      RES 2,E
00047A 047A CB94             8      RES 2,H
00047C 047C CB95             8      RES 2,L
00047E 047E CB96            15      RES 2,(HL)
000480 0480 CB97             8      RES 2,A
000482 0482 CB98             8      RES 3,B
000484 0484 CB99             8      RES 3,C
000486 0486 CB9A             8      RES 3,D
000488 0488 CB9B             8      RES 3,E
00048A 048A CB9C             8      RES 3,H
00048C 048C CB9D             8      RES 3,L
00048E 048E CB9E            15      RES 3,(HL)
000490 0490 CB9F             8      RES 3,A
000492 0492 CBA0             8      RES 4,B
000494 0494 CBA1             8      RES 4,C
000496 0496 CBA2             8      RES 4,D
000498 0498 CBA3             8      RES 4,E
00049A 049A CBA4             8      RES 4,H
00049C 049C CBA5             8      RES 4,L
00049E 049E CBA6            15      RES 4,(HL)
0004A0 04A0 CBA7             8      RES 4,A
0004A2 04A2 CBA8             8      RES 5,B
0004A4 04A4 CBA9             8      RES 5,C
0004A6 04A6 CBAA             8      RES 5,D
0004A8 04A8 CBAB             8      RES 5,E
0004AA 04AA CBAC             8      RES 5,H
0004AC 04AC CBAD             8      RES 5,L
0004AE 04AE CBAE            15      RES 5,(HL)
0004B0 04B0 CBAF             8      RES 5,A
0004B2 04B2 CBB0             8      RES 6,B
0004B4 04B4 CBB1             8      RES 6,C
0004B6 04B6 CBB2             8      RES 6,D
0004B8 04B8 CBB3             8      RES 6,E
0004BA 04BA CBB4             8      RES 6,H
0004BC 04BC CBB5             8      RES 6,L
0004BE 04BE CBB6            15      RES 6,(HL)
0004C0 04C0 CBB7             8      RES 6,A
0004C2 04C2 CBB8             8      RES 7,B
0004C4 04C4 CBB9             8      RES 7,C
0004C6 04C6 CBBA             8      RES 7,D
0004C8 04C8 CBBB             8      RES 7,E
0004CA 04CA CBBC             8      RES 7,H
0004CC 04CC CBBD             8      RES 7,L
0004CE 04CE CBBE            15      RES 7,(HL)
0004D0 04D0 CBBF             8      RES 7,A
0004D2 04D2 CBC0             8      SET 0,B
0004D4 04D4 CBC1             8      SET 0,C
0004D6 04D6 CBC2             8      SET 0,D
0004D8 04D8 CBC3             8      SET 0,E
0004DA 04DA CBC4             8      SET 0,H
0004DC 04DC CBC5             8      SET 0,L
0004DE 04DE CBC6            15      SET 0,(HL)
0004E0 04E0 CBC7             8      SET 0,A
0004E2 04E2 CBC8             8      SET 1,B
0004E4 04E4 CBC9             8      SET 1,C
0004E6 04E6 CBCA             8      SET 1,D
0004E8 04E8 CBCB             8      SET 1,E
0004EA 04EA CBCC             8      SET 1,H
0004EC 04EC CBCD             8      SET 1,L
0004EE 04EE CBCE            15      SET 1,(HL)
0004F0 04F0 CBCF             8      SET 1,A
0004F2 04F2 CBD0             8      SET 2,B
0004F4 04F4 CBD1             8      SET 2,C
0004F6 04F6 CBD2             8      SET 2,D
0004F8 04F8 CBD3             8      SET 2,E
0004FA 04FA CBD4             8      SET 2,H
0004FC 04FC CBD5             8      SET 2,L
0004FE 04FE CBD6            15      SET 2,(HL)
000500 0500 CBD7             8      SET 2,A
000502 0502 CBD8             8      SET 3,B
000504 0504 CBD9             8      SET 3,C
000506 0506 CBDA             8      SET 3,D
000508 0508 CBDB             8      SET 3,E
00050A 050A CBDC             8      SET 3,H
00050C 050C CBDD             8      SET 3,L
00050E 050E CBDE            15      SET 3,(HL)
000510 0510 CBDF             8      SET 3,A
000512 0512 CBE0             8      SET 4,B
000514 0514 CBE1             8      SET 4,C
000516 0516 CBE2             8      SET 4,D
000518 0518 CBE3             8      SET 4,E
00051A 051A CBE4             8      SET 4,H
00051C 051C CBE5             8      SET 4,L
00051E 051E CBE6            15      SET 4,(HL)
000520 0520 CBE7             8      SET 4,A
000522 0522 CBE8             8      SET 5,B
000524 0524 CBE9             8      SET 5,C
000526 0526 CBEA             8      SET 5,D
000528 0528 CBEB             8      SET 5,E
00052A 052A CBEC             8      SET 5,H
00052C 052C CBED             8      SET 5,L
00052E 052E CBEE            15      SET 5,(HL)
000530 0530 CBEF             8      SET 5,A
000532 0532 CBF0             8      SET 6,B
000534 0534 CBF1             8      SET 6,C
000536 0536 CBF2             8      SET 6,D
000538 0538 CBF3             8      SET 6,E
00053A 053A CBF4             8      SET 6,H
00053C 053C CBF5             8      SET 6,L
00053E 053E CBF6            15      SET 6,(HL)
000540 0540 CBF7             8      SET 6,A
000542 0542 CBF8             8      SET 7,B
000544 0544 CBF9             8      SET 7,C
000546 0546 CBFA             8      SET 7,D
000548 0548 CBFB             8      SET 7,E
00054A 054A CBFC             8      SET 7,H
00054C 054C CBFD             8      SET 7,L
00054E 054E CBFE            15      SET 7,(HL)
000550 0550 CBFF             8      SET 7,A
                                
                                    ;ビット操作系(DD CB)
000552 0552 DDCB0100        23      RLC (IX+1),B 
000556 0556 DDCB0201        23      RLC (IX+2),C 
00055A 055A DDCB0302        23      RLC (IX+3),D 
00055E 055E DDCB0403        23      RLC (IX+4),E 
000562 0562 DDCB0504        23      RLC (IX+5),H 
000566 0566 DDCB0605        23      RLC (IX+6),L 
00056A 056A DDCB0706        23      RLC (IX+7)
00056E 056E DDCB0807        23      RLC (IX+8),A 
000572 0572 DDCB0908        23      RRC (IX+9),B 
000576 0576 DDCB0A09        23      RRC (IX+10),C 
00057A 057A DDCB0B0A        23      RRC (IX+11),D 
00057E 057E DDCB0C0B        23      RRC (IX+12),E 
000582 0582 DDCB0D0C        23      RRC (IX+13),H 
000586 0586 DDCB0E0D        23      RRC (IX+14),L 
00058A 058A DDCB0F0E        23      RRC (IX+15)
00058E 058E DDCB100F        23      RRC (IX+16),A
000592 0592 DDCB1110        23      RL (IX+17),B 
000596 0596 DDCB1211        23      RL (IX+18),C 
00059A 059A DDCB1312        23      RL (IX+19),D 
00059E 059E DDCB1413        23      RL (IX+20),E 
0005A2 05A2 DDCB1514        23      RL (IX+21),H 
0005A6 05A6 DDCB1615        23      RL (IX+22),L 
0005AA 05AA DDCB1716        23      RL (IX+23)
0005AE 05AE DDCB1817        23      RL (IX+24),A 
0005B2 05B2 DDCB1918        23      RR (IX+25),B 
0005B6 05B6 DDCB1A19        23      RR (IX+26),C 
0005BA 05BA DDCB1B1A        23      RR (IX+27),D 
0005BE 05BE DDCB1C1B        23      RR (IX+28),E 
0005C2 05C2 DDCB1D1C        23      RR (IX+29),H 
0005C6 05C6 DDCB1E1D        23      RR (IX+30),L 
0005CA 05CA DDCB1F1E        23      RR (IX+31)
0005CE 05CE DDCB201F        23      RR (IX+32),A
0005D2 05D2 DDCB2120        23      SLA (IX+33),B 
0005D6 05D6 DDCB2221        23      SLA (IX+34),C 
0005DA 05DA DDCB2322        23      SLA (IX+35),D 
0005DE 05DE DDCB2423        23      SLA (IX+36),E 
0005E2 05E2 DDCB2524        23      SLA (IX+37),H 
0005E6 05E6 DDCB2625        23      SLA (IX+38),L 
0005EA 05EA DDCB2726        23      SLA (IX+39)
0005EE 05EE DDCB2827        23      SLA (IX+40),A 
0005F2 05F2 DDCB2928        23      SRA (IX+41),B 
0005F6 05F6 DDCB2A29        23      SRA (IX+42),C 
0005FA 05FA DDCB2B2A        23      SRA (IX+43),D 
0005FE 05FE DDCB2C2B        23      SRA (IX+44),E 
000602 0602 DDCB2D2C        23      SRA (IX+45),H 
000606 0606 DDCB2E2D        23      SRA (IX+46),L 
00060A 060A DDCB2F2E        23      SRA (IX+47)
00060E 060E DDCB302F        23      SRA (IX+48),A 
000612 0612 DDCB3130        23      SLL (IX+49),B 
000616 0616 DDCB3231        23      SLL (IX+50),C 
00061A 061A DDCB3332        23      SLL (IX+51),D 
00061E 061E DDCB3433        23      SLL (IX+52),E 
000622 0622 DDCB3534        23      SLL (IX+53),H 
000626 0626 DDCB3635        23      SLL (IX+54),L 
                                    
00062A 062A DDCB3737        23      SLL (IX+55),A 
00062E 062E DDCB3838        23      SRL (IX+56),B 
000632 0632 DDCB3939        23      SRL (IX+57),C 
000636 0636 DDCB3A3A        23      SRL (IX+58),D 
00063A 063A DDCB3B3B        23      SRL (IX+59),E 
00063E 063E DDCB3C3C        23      SRL (IX+60),H 
000642 0642 DDCB3D3D        23      SRL (IX+61),L 
000646 0646 DDCB3E3E        23      SRL (IX+62)
00064A 064A DDCB3F3F        23      SRL (IX+63),A
00064E 064E DDCB4046        20      BIT 0,(IX+64)
000652 0652 DDCB414E        20      BIT 1,(IX+65)
000656 0656 DDCB4256        20      BIT 2,(IX+66)
00065A 065A DDCB435E        20      BIT 3,(IX+67)
00065E 065E DDCB4466        20      BIT 4,(IX+68)
000662 0662 DDCB456E        20      BIT 5,(IX+69)
000666 0666 DDCB4676        20      BIT 6,(IX+70)
00066A 066A DDCB477E        20      BIT 7,(IX+71)
00066E 066E DDCB4880        23      RES 0,(IX+72),B 
000672 0672 DDCB4981        23      RES 0,(IX+73),C 
000676 0676 DDCB4A82        23      RES 0,(IX+74),D 
00067A 067A DDCB4B83        23      RES 0,(IX+75),E 
00067E 067E DDCB4C84        23      RES 0,(IX+76),H 
000682 0682 DDCB4D85        23      RES 0,(IX+77),L 
000686 0686 DDCB4E86        23      RES 0,(IX+78)
00068A 068A DDCB4F87        23      RES 0,(IX+79),A 
00068E 068E DDCB5088        23      RES 1,(IX+80),B 
000692 0692 DDCB5189        23      RES 1,(IX+81),C 
000696 0696 DDCB528A        23      RES 1,(IX+82),D 
00069A 069A DDCB538B        23      RES 1,(IX+83),E 
00069E 069E DDCB548C        23      RES 1,(IX+84),H 
0006A2 06A2 DDCB558D        23      RES 1,(IX+85),L 
0006A6 06A6 DDCB568E        23      RES 1,(IX+86)
0006AA 06AA DDCB578F        23      RES 1,(IX+87),A 
0006AE 06AE DDCB5890        23      RES 2,(IX+88),B 
0006B2 06B2 DDCB5991        23      RES 2,(IX+89),C 
0006B6 06B6 DDCB5A92        23      RES 2,(IX+90),D 
0006BA 06BA DDCB5B93        23      RES 2,(IX+91),E 
0006BE 06BE DDCB5C94        23      RES 2,(IX+92),H 
0006C2 06C2 DDCB5D95        23      RES 2,(IX+93),L 
0006C6 06C6 DDCB5E96        23      RES 2,(IX+94)
0006CA 06CA DDCB5F97        23      RES 2,(IX+95),A 
0006CE 06CE DDCB6098        23      RES 3,(IX+96),B 
0006D2 06D2 DDCB6199        23      RES 3,(IX+97),C 
0006D6 06D6 DDCB629A        23      RES 3,(IX+98),D 
0006DA 06DA DDCB639B        23      RES 3,(IX+99),E 
0006DE 06DE DDCB649C        23      RES 3,(IX+100),H 
0006E2 06E2 DDCB659D        23      RES 3,(IX+101),L 
0006E6 06E6 DDCB669E        23      RES 3,(IX+102)
0006EA 06EA DDCB679F        23      RES 3,(IX+103),A 
0006EE 06EE DDCB68A0        23      RES 4,(IX+104),B 
0006F2 06F2 DDCB69A1        23      RES 4,(IX+105),C 
0006F6 06F6 DDCB6AA2        23      RES 4,(IX+106),D 
0006FA 06FA DDCB6BA3        23      RES 4,(IX+107),E 
0006FE 06FE DDCB6CA4        23      RES 4,(IX+108),H 
000702 0702 DDCB6DA5        23      RES 4,(IX+109),L 
000706 0706 DDCB6EA6        23      RES 4,(IX+110)
00070A 070A DDCB6FA7        23      RES 4,(IX+111),A 
00070E 070E DDCB70A8        23      RES 5,(IX+112),B 
000712 0712 DDCB71A9        23      RES 5,(IX+113),C 
000716 0716 DDCB72AA        23      RES 5,(IX+114),D 
00071A 071A DDCB73AB        23      RES 5,(IX+115),E 
00071E 071E DDCB74AC        23      RES 5,(IX+116),H 
000722 0722 DDCB75AD        23      RES 5,(IX+117),L 
000726 0726 DDCB76AE        23      RES 5,(IX+118)
00072A 072A DDCB77AF        23      RES 5,(IX+119),A 
00072E 072E DDCB78B0        23      RES 6,(IX+120),B 
000732 0732 DDCB79B1        23      RES 6,(IX+121),C 
000736 0736 DDCB7AB2        23      RES 6,(IX+122),D 
00073A 073A DDCB7BB3        23      RES 6,(IX+123),E 
00073E 073E DDCB7CB4        23      RES 6,(IX+124),H 
000742 0742 DDCB7DB5        23      RES 6,(IX+125),L 
000746 0746 DDCB7EB6        23      RES 6,(IX+126)
00074A 074A DDCB7FB7        23      RES 6,(IX+127),A 
00074E 074E DDCB80B8        23      RES 7,(IX+128),B 
000752 0752 DDCB81B9        23      RES 7,(IX+129),C 
000756 0756 DDCB82BA        23      RES 7,(IX+130),D 
00075A 075A DDCB83BB        23      RES 7,(IX+131),E 
00075E 075E DDCB84BC        23      RES 7,(IX+132),H 
000762 0762 DDCB85BD        23      RES 7,(IX+133),L 
000766 0766 DDCB86BE        23      RES 7,(IX+134)
00076A 076A DDCB87BF        23      RES 7,(IX+135),A 
00076E 076E DDCB88C0        23      SET 0,(IX+136),B 
000772 0772 DDCB89C1        23      SET 0,(IX+137),C 
000776 0776 DDCB8AC2        23      SET 0,(IX+138),D 
00077A 077A DDCB8BC3        23      SET 0,(IX+139),E 
00077E 077E DDCB8CC4        23      SET 0,(IX+140),H 
000782 0782 DDCB8DC5        23      SET 0,(IX+141),L 
000786 0786 DDCB8EC6        23      SET 0,(IX+142)
00078A 078A DDCB8FC7        23      SET 0,(IX+143),A 
00078E 078E DDCB90C8        23      SET 1,(IX+144),B 
000792 0792 DDCB91C9        23      SET 1,(IX+145),C 
000796 0796 DDCB92CA        23      SET 1,(IX+146),D 
00079A 079A DDCB93CB        23      SET 1,(IX+147),E 
00079E 079E DDCB94CC        23      SET 1,(IX+148),H 
0007A2 07A2 DDCB95CD        23      SET 1,(IX+149),L 
0007A6 07A6 DDCB96CE        23      SET 1,(IX+150)
0007AA 07AA DDCB97CF        23      SET 1,(IX+151),A 
0007AE 07AE DDCB98D0        23      SET 2,(IX+152),B 
0007B2 07B2 DDCB99D1        23      SET 2,(IX+153),C 
0007B6 07B6 DDCB9AD2        23      SET 2,(IX+154),D 
0007BA 07BA DDCB9BD3        23      SET 2,(IX+155),E 
0007BE 07BE DDCB9CD4        23      SET 2,(IX+156),H 
0007C2 07C2 DDCB9DD5        23      SET 2,(IX+157),L 
0007C6 07C6 DDCB9ED6        23      SET 2,(IX+158)
0007CA 07CA DDCB9FD7        23      SET 2,(IX+159),A 
0007CE 07CE DDCBA0D8        23      SET 3,(IX+160),B 
0007D2 07D2 DDCBA1D9        23      SET 3,(IX+161),C 
0007D6 07D6 DDCBA2DA        23      SET 3,(IX+162),D 
0007DA 07DA DDCBA3DB        23      SET 3,(IX+163),E 
0007DE 07DE DDCBA4DC        23      SET 3,(IX+164),H 
0007E2 07E2 DDCBA5DD        23      SET 3,(IX+165),L 
0007E6 07E6 DDCBA6DE        23      SET 3,(IX+166)
0007EA 07EA DDCBA7DF        23      SET 3,(IX+167),A 
0007EE 07EE DDCBA8E0        23      SET 4,(IX+168),B 
0007F2 07F2 DDCBA9E1        23      SET 4,(IX+169),C 
0007F6 07F6 DDCBAAE2        23      SET 4,(IX+170),D 
0007FA 07FA DDCBABE3        23      SET 4,(IX+171),E 
0007FE 07FE DDCBACE4        23      SET 4,(IX+172),H 
000802 0802 DDCBADE5        23      SET 4,(IX+173),L 
000806 0806 DDCBAEE6        23      SET 4,(IX+174)
00080A 080A DDCBAFE7        23      SET 4,(IX+175),A 
00080E 080E DDCBB0E8        23      SET 5,(IX+176),B 
000812 0812 DDCBB1E9        23      SET 5,(IX+177),C 
000816 0816 DDCBB2EA        23      SET 5,(IX+178),D 
00081A 081A DDCBB3EB        23      SET 5,(IX+179),E 
00081E 081E DDCBB4EC        23      SET 5,(IX+180),H 
000822 0822 DDCBB5ED        23      SET 5,(IX+181),L 
000826 0826 DDCBB6EE        23      SET 5,(IX+182)
00082A 082A DDCBB7EF        23      SET 5,(IX+183),A 
00082E 082E DDCBB8F0        23      SET 6,(IX+184),B 
000832 0832 DDCBB9F1        23      SET 6,(IX+185),C 
000836 0836 DDCBBAF2        23      SET 6,(IX+186),D 
00083A 083A DDCBBBF3        23      SET 6,(IX+187),E 
00083E 083E DDCBBCF4        23      SET 6,(IX+188),H 
000842 0842 DDCBBDF5        23      SET 6,(IX+189),L 
000846 0846 DDCBBEF6        23      SET 6,(IX+190)
00084A 084A DDCBBFF7        23      SET 6,(IX+190+1),A 
00084E 084E DDCBC0F8        23      SET 7,(IX+190+2),B 
000852 0852 DDCBC1F9        23      SET 7,(IX+190+3),C 
000856 0856 DDCBC2FA        23      SET 7,(IX+190+4),D 
00085A 085A DDCBC3FB        23      SET 7,(IX+190+5),E 
00085E 085E DDCBC4FC        23      SET 7,(IX+190+6),H 
000862 0862 DDCBC5FD        23      SET 7,(IX+190+7),L 
000866 0866 DDCBC6FE        23      SET 7,(IX+198)
00086A 086A DDCBC7FF        23      SET 7,(IX+199),A
                                
                                    ;ビット操作系(FD CB)
00086E 086E FDCB0100        23      RLC (IY+1),B
000872 0872 FDCB0201        23      RLC (IY+2),C
000876 0876 FDCB0302        23      RLC (IY+3),D
00087A 087A FDCB0403        23      RLC (IY+4),E
00087E 087E FDCB0504        23      RLC (IY+5),H
000882 0882 FDCB0605        23      RLC (IY+6),L
000886 0886 FDCB0706        23      RLC (IY+7)
00088A 088A FDCB0807        23      RLC (IY+8),A 
00088E 088E FDCB0908        23      RRC (IY+9),B 
000892 0892 FDCB0A09        23      RRC (IY+10),C 
000896 0896 FDCB0B0A        23      RRC (IY+11),D 
00089A 089A FDCB0C0B        23      RRC (IY+12),E 
00089E 089E FDCB0D0C        23      RRC (IY+13),H 
0008A2 08A2 FDCB0E0D        23      RRC (IY+14),L 
0008A6 08A6 FDCB0F0E        23      RRC (IY+15)
0008AA 08AA FDCB100F        23      RRC (IY+16),A
0008AE 08AE FDCB1110        23      RL  (IY+17),B 
0008B2 08B2 FDCB1211        23      RL  (IY+18),C 
0008B6 08B6 FDCB1312        23      RL  (IY+19),D 
0008BA 08BA FDCB1413        23      RL  (IY+20),E 
0008BE 08BE FDCB1514        23      RL  (IY+21),H 
0008C2 08C2 FDCB1615        23      RL  (IY+22),L 
0008C6 08C6 FDCB1716        23      RL  (IY+23)
0008CA 08CA FDCB1817        23      RL  (IY+24),A
0008CE 08CE FDCB1918        23      RR  (IY+25),B
0008D2 08D2 FDCB1A19        23      RR  (IY+26),C
0008D6 08D6 FDCB1B1A        23      RR  (IY+27),D
0008DA 08DA FDCB1C1B        23      RR  (IY+28),E
0008DE 08DE FDCB1D1C        23      RR  (IY+29),H
0008E2 08E2 FDCB1E1D        23      RR  (IY+30),L
0008E6 08E6 FDCB1F1E        23      RR  (IY+31)
0008EA 08EA FDCB201F        23      RR  (IY+32),A
0008EE 08EE FDCB2120        23      SLA (IY+33),B
0008F2 08F2 FDCB2221        23      SLA (IY+34),C
0008F6 08F6 FDCB2322        23      SLA (IY+35),D
0008FA 08FA FDCB2423        23      SLA (IY+36),E
0008FE 08FE FDCB2524        23      SLA (IY+37),H
000902 0902 FDCB2625        23      SLA (IY+38),L
000906 0906 FDCB2726        23      SLA (IY+39)
00090A 090A FDCB2827        23      SLA (IY+40),A
00090E 090E FDCB2928        23      SRA (IY+41),B
000912 0912 FDCB2A29        23      SRA (IY+42),C
000916 0916 FDCB2B2A        23      SRA (IY+43),D
00091A 091A FDCB2C2B        23      SRA (IY+44),E
00091E 091E FDCB2D2C        23      SRA (IY+45),H
000922 0922 FDCB2E2D        23      SRA (IY+46),L
000926 0926 FDCB2F2E        23      SRA (IY+47)
00092A 092A FDCB302F        23      SRA (IY+48),A 
00092E 092E FDCB3130        23      SLL (IY+49),B 
000932 0932 FDCB3231        23      SLL (IY+50),C 
000936 0936 FDCB3332        23      SLL (IY+51),D 
00093A 093A FDCB3433        23      SLL (IY+52),E 
00093E 093E FDCB3534        23      SLL (IY+53),H 
000942 0942 FDCB3635        23      SLL (IY+54),L 
                                    
000946 0946 FDCB3737        23      SLL (IY+55),A 
00094A 094A FDCB3838        23      SRL (IY+56),B 
00094E 094E FDCB3939        23      SRL (IY+57),C 
000952 0952 FDCB3A3A        23      SRL (IY+58),D 
000956 0956 FDCB3B3B        23      SRL (IY+59),E 
00095A 095A FDCB3C3C        23      SRL (IY+60),H 
00095E 095E FDCB3D3D        23      SRL (IY+61),L 
000962 0962 FDCB3E3E        23      SRL (IY+62)
000966 0966 FDCB3F3F        23      SRL (IY+63),A 
00096A 096A FDCB4046        20      BIT 0,(IY+64)
00096E 096E FDCB414E        20      BIT 1,(IY+65)
000972 0972 FDCB4256        20      BIT 2,(IY+66)
000976 0976 FDCB435E        20      BIT 3,(IY+67)
00097A 097A FDCB4466        20      BIT 4,(IY+68)
00097E 097E FDCB456E        20      BIT 5,(IY+69)
000982 0982 FDCB4676        20      BIT 6,(IY+70)
000986 0986 FDCB477E        20      BIT 7,(IY+71)
00098A 098A FDCB4880        23      RES 0,(IY+72),B 
00098E 098E FDCB4981        23      RES 0,(IY+73),C 
000992 0992 FDCB4A82        23      RES 0,(IY+74),D 
000996 0996 FDCB4B83        23      RES 0,(IY+75),E 
00099A 099A FDCB4C84        23      RES 0,(IY+76),H 
00099E 099E FDCB4D85        23      RES 0,(IY+77),L 
0009A2 09A2 FDCB4E86        23      RES 0,(IY+78)
0009A6 09A6 FDCB4F87        23      RES 0,(IY+79),A 
0009AA 09AA FDCB5088        23      RES 1,(IY+80),B 
0009AE 09AE FDCB5189        23      RES 1,(IY+81),C 
0009B2 09B2 FDCB528A        23      RES 1,(IY+82),D 
0009B6 09B6 FDCB538B        23      RES 1,(IY+83),E 
0009BA 09BA FDCB548C        23      RES 1,(IY+84),H 
0009BE 09BE FDCB558D        23      RES 1,(IY+85),L 
0009C2 09C2 FDCB568E        23      RES 1,(IY+86)
0009C6 09C6 FDCB578F        23      RES 1,(IY+87),A 
0009CA 09CA FDCB5890        23      RES 2,(IY+88),B 
0009CE 09CE FDCB5991        23      RES 2,(IY+89),C 
0009D2 09D2 FDCB5A92        23      RES 2,(IY+90),D 
0009D6 09D6 FDCB5B93        23      RES 2,(IY+91),E 
0009DA 09DA FDCB5C94        23      RES 2,(IY+92),H 
0009DE 09DE FDCB5D95        23      RES 2,(IY+93),L 
0009E2 09E2 FDCB5E96        23      RES 2,(IY+94)
0009E6 09E6 FDCB5F97        23      RES 2,(IY+95),A 
0009EA 09EA FDCB6098        23      RES 3,(IY+96),B 
0009EE 09EE FDCB6199        23      RES 3,(IY+97),C 
0009F2 09F2 FDCB629A        23      RES 3,(IY+98),D 
0009F6 09F6 FDCB639B        23      RES 3,(IY+99),E 
0009FA 09FA FDCB649C        23      RES 3,(IY+100),H 
0009FE 09FE FDCB659D        23      RES 3,(IY+101),L 
000A02 0A02 FDCB669E        23      RES 3,(IY+102)
000A06 0A06 FDCB679F        23      RES 3,(IY+103),A 
000A0A 0A0A FDCB68A0        23      RES 4,(IY+104),B 
000A0E 0A0E FDCB69A1        23      RES 4,(IY+105),C 
000A12 0A12 FDCB6AA2        23      RES 4,(IY+106),D 
000A16 0A16 FDCB6BA3        23      RES 4,(IY+107),E 
000A1A 0A1A FDCB6CA4        23      RES 4,(IY+108),H 
000A1E 0A1E FDCB6DA5        23      RES 4,(IY+109),L 
000A22 0A22 FDCB6EA6        23      RES 4,(IY+110)
000A26 0A26 FDCB6FA7        23      RES 4,(IY+111),A 
000A2A 0A2A FDCB70A8        23      RES 5,(IY+112),B 
000A2E 0A2E FDCB71A9        23      RES 5,(IY+113),C 
000A32 0A32 FDCB72AA        23      RES 5,(IY+114),D 
000A36 0A36 FDCB73AB        23      RES 5,(IY+115),E 
000A3A 0A3A FDCB74AC        23      RES 5,(IY+116),H 
000A3E 0A3E FDCB75AD        23      RES 5,(IY+117),L 
000A42 0A42 FDCB76AE        23      RES 5,(IY+118)
000A46 0A46 FDCB77AF        23      RES 5,(IY+119),A 
000A4A 0A4A FDCB78B0        23      RES 6,(IY+120),B 
000A4E 0A4E FDCB79B1        23      RES 6,(IY+121),C 
000A52 0A52 FDCB7AB2        23      RES 6,(IY+122),D 
000A56 0A56 FDCB7BB3        23      RES 6,(IY+123),E 
000A5A 0A5A FDCB7CB4        23      RES 6,(IY+124),H 
000A5E 0A5E FDCB7DB5        23      RES 6,(IY+125),L 
000A62 0A62 FDCB7EB6        23      RES 6,(IY+126)
000A66 0A66 FDCB7FB7        23      RES 6,(IY+127),A 
000A6A 0A6A FDCB80B8        23      RES 7,(IY+128),B 
000A6E 0A6E FDCB81B9        23      RES 7,(IY+129),C 
000A72 0A72 FDCB82BA        23      RES 7,(IY+130),D 
000A76 0A76 FDCB83BB        23      RES 7,(IY+131),E 
000A7A 0A7A FDCB84BC        23      RES 7,(IY+132),H 
000A7E 0A7E FDCB85BD        23      RES 7,(IY+133),L 
000A82 0A82 FDCB86BE        23      RES 7,(IY+134)
000A86 0A86 FDCB87BF        23      RES 7,(IY+135),A 
000A8A 0A8A FDCB88C0        23      SET 0,(IY+136),B 
000A8E 0A8E FDCB89C1        23      SET 0,(IY+137),C 
000A92 0A92 FDCB8AC2        23      SET 0,(IY+138),D 
000A96 0A96 FDCB8BC3        23      SET 0,(IY+139),E 
000A9A 0A9A FDCB8CC4        23      SET 0,(IY+140),H 
000A9E 0A9E FDCB8DC5        23      SET 0,(IY+141),L 
000AA2 0AA2 FDCB8EC6        23      SET 0,(IY+142)
000AA6 0AA6 FDCB8FC7        23      SET 0,(IY+143),A 
000AAA 0AAA FDCB90C8        23      SET 1,(IY+144),B 
000AAE 0AAE FDCB91C9        23      SET 1,(IY+145),C 
000AB2 0AB2 FDCB92CA        23      SET 1,(IY+146),D 
000AB6 0AB6 FDCB93CB        23      SET 1,(IY+147),E 
000ABA 0ABA FDCB94CC        23      SET 1,(IY+148),H 
000ABE 0ABE FDCB95CD        23      SET 1,(IY+149),L 
000AC2 0AC2 FDCB96CE        23      SET 1,(IY+150)
000AC6 0AC6 FDCB97CF        23      SET 1,(IY+151),A 
000ACA 0ACA FDCB98D0        23      SET 2,(IY+152),B 
000ACE 0ACE FDCB99D1        23      SET 2,(IY+153),C 
000AD2 0AD2 FDCB9AD2        23      SET 2,(IY+154),D 
000AD6 0AD6 FDCB9BD3        23      SET 2,(IY+155),E 
000ADA 0ADA FDCB9CD4        23      SET 2,(IY+156),H 
000ADE 0ADE FDCB9DD5        23      SET 2,(IY+157),L 
000AE2 0AE2 FDCB9ED6        23      SET 2,(IY+158)
000AE6 0AE6 FDCB9FD7        23      SET 2,(IY+159),A 
000AEA 0AEA FDCBA0D8        23      SET 3,(IY+160),B 
000AEE 0AEE FDCBA1D9        23      SET 3,(IY+161),C 
000AF2 0AF2 FDCBA2DA        23      SET 3,(IY+162),D 
000AF6 0AF6 FDCBA3DB        23      SET 3,(IY+163),E 
000AFA 0AFA FDCBA4DC        23      SET 3,(IY+164),H 
000AFE 0AFE FDCBA5DD        23      SET 3,(IY+165),L 
000B02 0B02 FDCBA6DE        23      SET 3,(IY+166)
000B06 0B06 FDCBA7DF        23      SET 3,(IY+167),A 
000B0A 0B0A FDCBA8E0        23      SET 4,(IY+168),B 
000B0E 0B0E FDCBA9E1        23      SET 4,(IY+169),C 
000B12 0B12 FDCBAAE2        23      SET 4,(IY+170),D 
000B16 0B16 FDCBABE3        23      SET 4,(IY+171),E 
000B1A 0B1A FDCBACE4        23      SET 4,(IY+172),H 
000B1E 0B1E FDCBADE5        23      SET 4,(IY+173),L 
000B22 0B22 FDCBAEE6        23      SET 4,(IY+174)
000B26 0B26 FDCBAFE7        23      SET 4,(IY+175),A 
000B2A 0B2A FDCBB0E8        23      SET 5,(IY+176),B 
000B2E 0B2E FDCBB1E9        23      SET 5,(IY+177),C 
000B32 0B32 FDCBB2EA        23      SET 5,(IY+178),D 
000B36 0B36 FDCBB3EB        23      SET 5,(IY+179),E 
000B3A 0B3A FDCBB4EC        23      SET 5,(IY+180),H 
000B3E 0B3E FDCBB5ED        23      SET 5,(IY+181),L 
000B42 0B42 FDCBB6EE        23      SET 5,(IY+182)
000B46 0B46 FDCBB7EF        23      SET 5,(IY+183),A 
000B4A 0B4A FDCBB8F0        23      SET 6,(IY+184),B 
000B4E 0B4E FDCBB9F1        23      SET 6,(IY+185),C 
000B52 0B52 FDCBBAF2        23      SET 6,(IY+186),D 
000B56 0B56 FDCBBBF3        23      SET 6,(IY+187),E 
000B5A 0B5A FDCBBCF4        23      SET 6,(IY+188),H 
000B5E 0B5E FDCBBDF5        23      SET 6,(IY+189),L 
000B62 0B62 FDCBBEF6        23      SET 6,(IY+190)
000B66 0B66 FDCBBFF7        23      SET 6,(IY+190+1),A 
000B6A 0B6A FDCBC0F8        23      SET 7,(IY+190+2),B 
000B6E 0B6E FDCBC1F9        23      SET 7,(IY+190+3),C 
000B72 0B72 FDCBC2FA        23      SET 7,(IY+190+4),D 
000B76 0B76 FDCBC3FB        23      SET 7,(IY+190+5),E 
000B7A 0B7A FDCBC4FC        23      SET 7,(IY+190+6),H 
000B7E 0B7E FDCBC5FD        23      SET 7,(IY+190+7),L 
000B82 0B82 FDCBC6FE        23      SET 7,(IY+198)
000B86 0B86 FDCBC7FF        23      SET 7,(IY+199),A
[EOF:Test.Z80:UTF_8]
